target datalayout = "e-m:e-p270:32:32-p271:32:32-p272:64:64-i64:64-i128:128-f80:128-n8:16:32:64-S128"
target triple = "x86_64-pc-linux-gnu"

%struct.SockAddr = type { %struct.sockaddr_storage, i32 }
%struct.sockaddr_storage = type { i16, [118 x i8], i64 }
%struct.Port = type { i32, i8, i32, %struct.SockAddr, %struct.SockAddr, ptr, ptr, i32, i32, ptr, ptr, ptr, ptr, ptr, ptr, ptr, i32, i32, i32, i32, i32, i32, i32, i32, [32 x i8], [32 x i8], i8, ptr, i8, ptr, ptr, i8, i8, i8, ptr, ptr, ptr, i64, i64 }

@.str.2 = private unnamed_addr constant [9 x i8] c"pqcomm.c\00", align 1
@PqRecvLength = internal global i32 0, align 4
@PqRecvPointer = internal global i32 0, align 4
@PqRecvBuffer = internal global [8192 x i8] zeroinitializer, align 16
@MyProcPort = external global ptr, align 8
@.str.30 = private unnamed_addr constant [39 x i8] c"could not receive data from client: %m\00", align 1
@__func__.pq_recvbuf = private unnamed_addr constant [11 x i8] c"pq_recvbuf\00", align 1
@.str.44 = private unnamed_addr constant [30 x i8] c"there is no client connection\00", align 1
@__func__.socket_set_nonblocking = private unnamed_addr constant [23 x i8] c"socket_set_nonblocking\00", align 1

; Function Attrs: nounwind uwtable
define internal void @socket_set_nonblocking(i1 noundef zeroext %0) #0 {
  %2 = alloca i8, align 1
  %3 = zext i1 %0 to i8
  store i8 %3, ptr %2, align 1
  %4 = load ptr, ptr @MyProcPort, align 8
  %5 = icmp eq ptr %4, null
  br i1 %5, label %6, label %17

6:                                                ; preds = %1
  br label %7

7:                                                ; preds = %6
  br i1 true, label %8, label %10

8:                                                ; preds = %7
  %9 = call zeroext i1 @errstart_cold(i32 noundef 21, ptr noundef null) #15
  br i1 %9, label %12, label %15

10:                                               ; preds = %7
  %11 = call zeroext i1 @errstart(i32 noundef 21, ptr noundef null)
  br i1 %11, label %12, label %15

12:                                               ; preds = %10, %8
  %13 = call i32 @errcode(i32 noundef 50332160)
  %14 = call i32 (ptr, ...) @errmsg(ptr noundef @.str.44)
  call void @errfinish(ptr noundef @.str.2, i32 noundef 886, ptr noundef @__func__.socket_set_nonblocking)
  br label %15

15:                                               ; preds = %12, %10, %8
  unreachable

16:                                               ; No predecessors!
  br label %17

17:                                               ; preds = %16, %1
  %18 = load i8, ptr %2, align 1, !range !11, !noundef !12
  %19 = trunc i8 %18 to i1
  %20 = load ptr, ptr @MyProcPort, align 8
  %21 = getelementptr inbounds nuw %struct.Port, ptr %20, i32 0, i32 1
  %22 = zext i1 %19 to i8
  store i8 %22, ptr %21, align 4
  ret void
}

; Function Attrs: nounwind uwtable
define internal i32 @pq_recvbuf() #0 {
  %1 = alloca i32, align 4
  %2 = alloca i32, align 4
  %3 = alloca i32, align 4
  %4 = load i32, ptr @PqRecvPointer, align 4
  %5 = icmp sgt i32 %4, 0
  br i1 %5, label %6, label %23

6:                                                ; preds = %0
  %7 = load i32, ptr @PqRecvLength, align 4
  %8 = load i32, ptr @PqRecvPointer, align 4
  %9 = icmp sgt i32 %7, %8
  br i1 %9, label %10, label %21

10:                                               ; preds = %6
  %11 = load i32, ptr @PqRecvPointer, align 4
  %12 = sext i32 %11 to i64
  %13 = getelementptr inbounds i8, ptr @PqRecvBuffer, i64 %12
  %14 = load i32, ptr @PqRecvLength, align 4
  %15 = load i32, ptr @PqRecvPointer, align 4
  %16 = sub i32 %14, %15
  %17 = sext i32 %16 to i64
  call void @llvm.memmove.p0.p0.i64(ptr align 16 @PqRecvBuffer, ptr align 1 %13, i64 %17, i1 false)
  %18 = load i32, ptr @PqRecvPointer, align 4
  %19 = load i32, ptr @PqRecvLength, align 4
  %20 = sub i32 %19, %18
  store i32 %20, ptr @PqRecvLength, align 4
  store i32 0, ptr @PqRecvPointer, align 4
  br label %22

21:                                               ; preds = %6
  store i32 0, ptr @PqRecvPointer, align 4
  store i32 0, ptr @PqRecvLength, align 4
  br label %22

22:                                               ; preds = %21, %10
  br label %23

23:                                               ; preds = %22, %0
  call void @socket_set_nonblocking(i1 noundef zeroext false)
  br label %24

24:                                               ; preds = %67, %23
  call void @llvm.lifetime.start.p0(i64 4, ptr %2) #14
  %25 = call ptr @__errno_location() #17
  store i32 0, ptr %25, align 4
  %26 = load ptr, ptr @MyProcPort, align 8
  %27 = load i32, ptr @PqRecvLength, align 4
  %28 = sext i32 %27 to i64
  %29 = getelementptr inbounds i8, ptr @PqRecvBuffer, i64 %28
  %30 = load i32, ptr @PqRecvLength, align 4
  %31 = sub i32 8192, %30
  %32 = sext i32 %31 to i64
  %33 = call i64 @secure_read(ptr noundef %26, ptr noundef %29, i64 noundef %32)
  %34 = trunc i64 %33 to i32
  store i32 %34, ptr %2, align 4
  %35 = load i32, ptr %2, align 4
  %36 = icmp slt i32 %35, 0
  br i1 %36, label %37, label %59

37:                                               ; preds = %24
  %38 = call ptr @__errno_location() #17
  %39 = load i32, ptr %38, align 4
  %40 = icmp eq i32 %39, 4
  br i1 %40, label %41, label %42

41:                                               ; preds = %37
  store i32 3, ptr %3, align 4
  br label %67

42:                                               ; preds = %37
  %43 = call ptr @__errno_location() #17
  %44 = load i32, ptr %43, align 4
  %45 = icmp ne i32 %44, 0
  br i1 %45, label %46, label %58

46:                                               ; preds = %42
  br label %47

47:                                               ; preds = %46
  br i1 false, label %48, label %50

48:                                               ; preds = %47
  %49 = call zeroext i1 @errstart_cold(i32 noundef 16, ptr noundef null) #15
  br i1 %49, label %52, label %55

50:                                               ; preds = %47
  %51 = call zeroext i1 @errstart(i32 noundef 16, ptr noundef null)
  br i1 %51, label %52, label %55

52:                                               ; preds = %50, %48
  %53 = call i32 @errcode_for_socket_access()
  %54 = call i32 (ptr, ...) @errmsg(ptr noundef @.str.30)
  call void @errfinish(ptr noundef @.str.2, i32 noundef 942, ptr noundef @__func__.pq_recvbuf)
  br label %55

55:                                               ; preds = %52, %50, %48
  br label %56

56:                                               ; preds = %55
  br label %57

57:                                               ; preds = %56
  br label %58

58:                                               ; preds = %57, %42
  store i32 -1, ptr %1, align 4
  store i32 1, ptr %3, align 4
  br label %67

59:                                               ; preds = %24
  %60 = load i32, ptr %2, align 4
  %61 = icmp eq i32 %60, 0
  br i1 %61, label %62, label %63

62:                                               ; preds = %59
  store i32 -1, ptr %1, align 4
  store i32 1, ptr %3, align 4
  br label %67

63:                                               ; preds = %59
  %64 = load i32, ptr %2, align 4
  %65 = load i32, ptr @PqRecvLength, align 4
  %66 = add i32 %65, %64
  store i32 %66, ptr @PqRecvLength, align 4
  store i32 0, ptr %1, align 4
  store i32 1, ptr %3, align 4
  br label %67

67:                                               ; preds = %63, %62, %58, %41
  call void @llvm.lifetime.end.p0(i64 4, ptr %2) #14
  %68 = load i32, ptr %3, align 4
  switch i32 %68, label %71 [
    i32 3, label %24
    i32 1, label %69
  ]

69:                                               ; preds = %67
  %70 = load i32, ptr %1, align 4
  ret i32 %70

71:                                               ; preds = %67
  unreachable
}