; Function Attrs: nounwind uwtable
define internal fastcc range(i32 -1, 1) i32 @pq_recvbuf() unnamed_addr #0 {
  %1 = load i32, ptr @PqRecvPointer, align 4
  %2 = icmp sgt i32 %1, 0
  br i1 %2, label %3, label %12

3:                                                ; preds = %0
  %4 = load i32, ptr @PqRecvLength, align 4
  %5 = icmp sgt i32 %4, %1
  br i1 %5, label %6, label %11

6:                                                ; preds = %3
  %7 = zext nneg i32 %1 to i64
  %8 = getelementptr inbounds nuw i8, ptr @PqRecvBuffer, i64 %7
  %9 = sub nsw i32 %4, %1
  %10 = sext i32 %9 to i64
  tail call void @llvm.memmove.p0.p0.i64(ptr nonnull align 16 @PqRecvBuffer, ptr nonnull align 1 %8, i64 %10, i1 false)
  store i32 %9, ptr @PqRecvLength, align 4
  br label %.sink.split

11:                                               ; preds = %3
  store i32 0, ptr @PqRecvPointer, align 4
  br label %.sink.split

.sink.split:                                      ; preds = %11, %6
  %PqRecvPointer.sink = phi ptr [ @PqRecvPointer, %6 ], [ @PqRecvLength, %11 ]
  store i32 0, ptr %PqRecvPointer.sink, align 4
  br label %12

12:                                               ; preds = %.sink.split, %0
  %13 = load ptr, ptr @MyProcPort, align 8
  %14 = icmp eq ptr %13, null
  br i1 %14, label %15, label %socket_set_nonblocking.exit

15:                                               ; preds = %12
  %16 = tail call zeroext i1 @errstart_cold(i32 noundef 21, ptr noundef null) #22
  tail call void @llvm.assume(i1 %16)
  %17 = tail call i32 @errcode(i32 noundef 50332160) #21
  %18 = tail call i32 (ptr, ...) @errmsg(ptr noundef nonnull @.str.44) #21
  tail call void @errfinish(ptr noundef nonnull @.str.2, i32 noundef 886, ptr noundef nonnull @__func__.socket_set_nonblocking) #21
  unreachable

socket_set_nonblocking.exit:                      ; preds = %12
  %19 = getelementptr inbounds nuw i8, ptr %13, i64 4
  store i8 0, ptr %19, align 4
  %20 = tail call ptr @__errno_location() #24
  br label %21

21:                                               ; preds = %31, %socket_set_nonblocking.exit
  store i32 0, ptr %20, align 4
  %22 = load ptr, ptr @MyProcPort, align 8
  %23 = load i32, ptr @PqRecvLength, align 4
  %24 = sext i32 %23 to i64
  %25 = getelementptr inbounds i8, ptr @PqRecvBuffer, i64 %24
  %26 = sub i32 8192, %23
  %27 = sext i32 %26 to i64
  %28 = tail call i64 @secure_read(ptr noundef %22, ptr noundef nonnull %25, i64 noundef %27) #21
  %29 = trunc i64 %28 to i32
  %30 = icmp slt i32 %29, 0
  br i1 %30, label %31, label %38

31:                                               ; preds = %21
  %32 = load i32, ptr %20, align 4
  switch i32 %32, label %33 [
    i32 4, label %21
    i32 0, label %.loopexit
  ]

33:                                               ; preds = %31
  %34 = tail call zeroext i1 @errstart(i32 noundef 16, ptr noundef null) #21
  br i1 %34, label %35, label %.loopexit

35:                                               ; preds = %33
  %36 = tail call i32 @errcode_for_socket_access() #21
  %37 = tail call i32 (ptr, ...) @errmsg(ptr noundef nonnull @.str.30) #21
  tail call void @errfinish(ptr noundef nonnull @.str.2, i32 noundef 942, ptr noundef nonnull @__func__.pq_recvbuf) #21
  br label %.loopexit

38:                                               ; preds = %21
  %39 = icmp eq i32 %29, 0
  br i1 %39, label %.loopexit, label %40

40:                                               ; preds = %38
  %41 = load i32, ptr @PqRecvLength, align 4
  %42 = add i32 %41, %29
  store i32 %42, ptr @PqRecvLength, align 4
  br label %.loopexit

.loopexit:                                        ; preds = %31, %35, %33, %40, %38
  %.1.ph = phi i32 [ -1, %38 ], [ 0, %40 ], [ -1, %33 ], [ -1, %35 ], [ -1, %31 ]
  ret i32 %.1.ph
}